target datalayout = "e-m:e-p270:32:32-p271:32:32-p272:64:64-i64:64-i128:128-f80:128-n8:16:32:64-S128"
target triple = "x86_64-pc-linux-gnu"

%struct.nstime_t = type { i64, i32 }
%struct._packet_info = type { ptr, ptr, i32, i32, %struct.nstime_t, %struct.nstime_t, %struct.nstime_t, i8, ptr, ptr, ptr, ptr, %struct._address, %struct._address, %struct._address, %struct._address, %struct._address, %struct._address, i32, ptr, i8, [3 x i8], %struct.anon, i32, i32, i32, i32, ptr, i8, ptr, ptr, i16, i16, i32, i32, i16, i32, i32, ptr, ptr, ptr, i8, i8, i16, i16, i16, i32, i16, i16, ptr, ptr, ptr, ptr, ptr, i32, i32 }
%struct._address = type { i32, i32, ptr, ptr }
%struct.anon = type { i8, [3 x i8] }

@hf_pfcp_travelping_trace_parent = internal global i32 0, align 4
@hf_pfcp_travelping_trace_parent_str = internal global i32 0, align 4
@.str.2654 = private unnamed_addr constant [3 x i8] c"%s\00", align 1

; Function Attrs: null_pointer_is_valid sspstrong uwtable
define internal i32 @dissect_pfcp_enterprise_travelping_trace_parent(ptr noundef %0, ptr noundef %1, ptr noundef %2, ptr noundef %3) #0 {
  %5 = alloca ptr, align 8
  %6 = alloca ptr, align 8
  %7 = alloca ptr, align 8
  %8 = alloca ptr, align 8
  %9 = alloca ptr, align 8
  store ptr %0, ptr %5, align 8
  store ptr %1, ptr %6, align 8
  store ptr %2, ptr %7, align 8
  store ptr %3, ptr %8, align 8
  %10 = load ptr, ptr %5, align 8
  %11 = call zeroext i1 @tvb_ascii_isprint(ptr noundef %10, i32 noundef 0, i32 noundef -1)
  br i1 %11, label %12, label %23

12:                                               ; preds = %4
  call void @llvm.lifetime.start.p0(i64 8, ptr %9) #13
  %13 = load ptr, ptr %7, align 8
  %14 = load i32, ptr @hf_pfcp_travelping_trace_parent_str, align 4
  %15 = load ptr, ptr %5, align 8
  %16 = load ptr, ptr %6, align 8
  %17 = getelementptr inbounds nuw %struct._packet_info, ptr %16, i32 0, i32 51
  %18 = load ptr, ptr %17, align 8
  %19 = call ptr @proto_tree_add_item_ret_string(ptr noundef %13, i32 noundef %14, ptr noundef %15, i32 noundef 0, i32 noundef -1, i32 noundef 0, ptr noundef %18, ptr noundef %9)
  %20 = load ptr, ptr %7, align 8
  %21 = call ptr @proto_tree_get_parent(ptr noundef %20)
  %22 = load ptr, ptr %9, align 8
  call void (ptr, ptr, ...) @proto_item_append_text(ptr noundef %21, ptr noundef @.str.2654, ptr noundef %22)
  call void @llvm.lifetime.end.p0(i64 8, ptr %9) #13
  br label %28

23:                                               ; preds = %4
  %24 = load ptr, ptr %7, align 8
  %25 = load i32, ptr @hf_pfcp_travelping_trace_parent, align 4
  %26 = load ptr, ptr %5, align 8
  %27 = call ptr @proto_tree_add_item(ptr noundef %24, i32 noundef %25, ptr noundef %26, i32 noundef 0, i32 noundef -1, i32 noundef 0)
  br label %28

28:                                               ; preds = %23, %12
  %29 = load ptr, ptr %5, align 8
  %30 = call i32 @tvb_reported_length(ptr noundef %29)
  ret i32 %30
}